target datalayout = "e-m:e-p270:32:32-p271:32:32-p272:64:64-i64:64-i128:128-f80:128-n8:16:32:64-S128"
target triple = "x86_64-pc-linux-gnu"

%struct._GLFWfbconfig = type { i32, i32, i32, i32, i32, i32, i32, i32, i32, i32, i32, i32, i32, i32, i32, i32, i64 }
%struct._GLFWwndconfig = type { i32, i32, i32, i32, ptr, i32, i32, i32, i32, i32, i32, i32, i32, i32, i32, i32, i32, %struct.anon.0, %struct.anon.1, %struct.anon.2, %struct.anon.3 }
%struct.anon.0 = type { [256 x i8] }
%struct.anon.1 = type { [256 x i8], [256 x i8] }
%struct.anon.2 = type { i32, i32 }
%struct.anon.3 = type { [256 x i8] }
%struct._GLFWctxconfig = type { i32, i32, i32, i32, i32, i32, i32, i32, i32, i32, ptr, %struct.anon }
%struct.anon = type { i32 }
%struct._GLFWwindow = type { ptr, i32, i32, i32, i32, i32, i32, i32, ptr, i32, %struct.GLFWvidmode, ptr, ptr, ptr, i32, i32, i32, i32, i32, i32, i32, i32, i32, i32, [8 x i8], [349 x i8], double, double, i32, %struct._GLFWcontext, %struct.anon.6, %struct._GLFWwindowWayland, %struct._GLFWwindowX11, %struct._GLFWwindowNull }
%struct.GLFWvidmode = type { i32, i32, i32, i32, i32, i32 }
%struct._GLFWcontext = type { i32, i32, i32, i32, i32, i32, i32, i32, i32, i32, i32, ptr, ptr, ptr, ptr, ptr, ptr, ptr, ptr, ptr, %struct.anon.4, %struct.anon.5, %struct._GLFWcontextGLX }
%struct.anon.4 = type { ptr, ptr, ptr, ptr }
%struct.anon.5 = type { ptr, i32, i32, ptr }
%struct._GLFWcontextGLX = type { ptr, i64 }
%struct.anon.6 = type { ptr, ptr, ptr, ptr, ptr, ptr, ptr, ptr, ptr, ptr, ptr, ptr, ptr, ptr, ptr, ptr, ptr }
%struct._GLFWwindowWayland = type { i32, i32, i32, i32, i32, i32, i32, i32, i32, i32, i32, ptr, ptr, %struct.anon.7, %struct.anon.8, %struct.anon.9, %struct.anon.10, ptr, double, double, ptr, i32, ptr, i64, i64, ptr, i32, ptr, ptr, ptr, ptr, ptr, ptr, %struct.anon.11 }
%struct.anon.7 = type { ptr }
%struct.anon.8 = type { i32, i32, i32, i32, i32, i32 }
%struct.anon.9 = type { ptr, ptr, ptr, i32 }
%struct.anon.10 = type { ptr }
%struct.anon.11 = type { i32, ptr, %struct._GLFWfallbackEdgeWayland, %struct._GLFWfallbackEdgeWayland, %struct._GLFWfallbackEdgeWayland, %struct._GLFWfallbackEdgeWayland, ptr }
%struct._GLFWfallbackEdgeWayland = type { ptr, ptr, ptr }
%struct._GLFWwindowX11 = type { i64, i64, i64, ptr, i32, i32, i32, i32, i32, i32, i32, i32, i32, i32, i32, i32, [256 x i64] }
%struct._GLFWwindowNull = type { i32, i32, i32, i32, i32, i32, i32, i32, i32, i32, i32, float }

; Function Attrs: nounwind uwtable
define internal void @fitToMonitor(ptr noundef %0) #0 {
  %2 = alloca ptr, align 8
  %3 = alloca %struct.GLFWvidmode, align 4
  store ptr %0, ptr %2, align 8, !tbaa !3
  call void @llvm.lifetime.start.p0(i64 24, ptr %3) #3
  %4 = load ptr, ptr %2, align 8, !tbaa !3
  %5 = getelementptr inbounds nuw %struct._GLFWwindow, ptr %4, i32 0, i32 11
  %6 = load ptr, ptr %5, align 8, !tbaa !25
  %7 = call i32 @_glfwGetVideoModeNull(ptr noundef %6, ptr noundef %3)
  %8 = load ptr, ptr %2, align 8, !tbaa !3
  %9 = getelementptr inbounds nuw %struct._GLFWwindow, ptr %8, i32 0, i32 11
  %10 = load ptr, ptr %9, align 8, !tbaa !25
  %11 = load ptr, ptr %2, align 8, !tbaa !3
  %12 = getelementptr inbounds nuw %struct._GLFWwindow, ptr %11, i32 0, i32 33
  %13 = getelementptr inbounds nuw %struct._GLFWwindowNull, ptr %12, i32 0, i32 0
  %14 = load ptr, ptr %2, align 8, !tbaa !3
  %15 = getelementptr inbounds nuw %struct._GLFWwindow, ptr %14, i32 0, i32 33
  %16 = getelementptr inbounds nuw %struct._GLFWwindowNull, ptr %15, i32 0, i32 1
  call void @_glfwGetMonitorPosNull(ptr noundef %10, ptr noundef %13, ptr noundef %16)
  %17 = getelementptr inbounds nuw %struct.GLFWvidmode, ptr %3, i32 0, i32 0
  %18 = load i32, ptr %17, align 4, !tbaa !174
  %19 = load ptr, ptr %2, align 8, !tbaa !3
  %20 = getelementptr inbounds nuw %struct._GLFWwindow, ptr %19, i32 0, i32 33
  %21 = getelementptr inbounds nuw %struct._GLFWwindowNull, ptr %20, i32 0, i32 2
  store i32 %18, ptr %21, align 8, !tbaa !74
  %22 = getelementptr inbounds nuw %struct.GLFWvidmode, ptr %3, i32 0, i32 1
  %23 = load i32, ptr %22, align 4, !tbaa !175
  %24 = load ptr, ptr %2, align 8, !tbaa !3
  %25 = getelementptr inbounds nuw %struct._GLFWwindow, ptr %24, i32 0, i32 33
  %26 = getelementptr inbounds nuw %struct._GLFWwindowNull, ptr %25, i32 0, i32 3
  store i32 %23, ptr %26, align 4, !tbaa !76
  call void @llvm.lifetime.end.p0(i64 24, ptr %3) #3
  ret void
}

; Function Attrs: nounwind uwtable
define internal void @acquireMonitor(ptr noundef %0) #0 {
  %2 = alloca ptr, align 8
  store ptr %0, ptr %2, align 8, !tbaa !3
  %3 = load ptr, ptr %2, align 8, !tbaa !3
  %4 = getelementptr inbounds nuw %struct._GLFWwindow, ptr %3, i32 0, i32 11
  %5 = load ptr, ptr %4, align 8, !tbaa !25
  %6 = load ptr, ptr %2, align 8, !tbaa !3
  call void @_glfwInputMonitorWindow(ptr noundef %5, ptr noundef %6)
  ret void
}

; Function Attrs: nounwind uwtable
define hidden void @_glfwShowWindowNull(ptr noundef %0) #0 {
  %2 = alloca ptr, align 8
  store ptr %0, ptr %2, align 8, !tbaa !3
  %3 = load ptr, ptr %2, align 8, !tbaa !3
  %4 = getelementptr inbounds nuw %struct._GLFWwindow, ptr %3, i32 0, i32 33
  %5 = getelementptr inbounds nuw %struct._GLFWwindowNull, ptr %4, i32 0, i32 4
  store i32 1, ptr %5, align 8, !tbaa !77
  ret void
}

; Function Attrs: nounwind uwtable
define hidden void @_glfwSetWindowMousePassthroughNull(ptr noundef %0, i32 noundef %1) #0 {
  %3 = alloca ptr, align 8
  %4 = alloca i32, align 4
  store ptr %0, ptr %3, align 8, !tbaa !3
  store i32 %1, ptr %4, align 4, !tbaa !88
  ret void
}

; Function Attrs: nounwind uwtable
define internal i32 @createNativeWindow(ptr noundef %0, ptr noundef %1, ptr noundef %2) #0 {
  %4 = alloca ptr, align 8
  %5 = alloca ptr, align 8
  %6 = alloca ptr, align 8
  store ptr %0, ptr %4, align 8, !tbaa !3
  store ptr %1, ptr %5, align 8, !tbaa !8
  store ptr %2, ptr %6, align 8, !tbaa !12
  %7 = load ptr, ptr %4, align 8, !tbaa !3
  %8 = getelementptr inbounds nuw %struct._GLFWwindow, ptr %7, i32 0, i32 11
  %9 = load ptr, ptr %8, align 8, !tbaa !25
  %10 = icmp ne ptr %9, null
  br i1 %10, label %11, label %13

11:                                               ; preds = %3
  %12 = load ptr, ptr %4, align 8, !tbaa !3
  call void @fitToMonitor(ptr noundef %12)
  br label %56

13:                                               ; preds = %3
  %14 = load ptr, ptr %5, align 8, !tbaa !8
  %15 = getelementptr inbounds nuw %struct._GLFWwndconfig, ptr %14, i32 0, i32 0
  %16 = load i32, ptr %15, align 8, !tbaa !69
  %17 = icmp eq i32 %16, -2147483648
  br i1 %17, label %18, label %30

18:                                               ; preds = %13
  %19 = load ptr, ptr %5, align 8, !tbaa !8
  %20 = getelementptr inbounds nuw %struct._GLFWwndconfig, ptr %19, i32 0, i32 1
  %21 = load i32, ptr %20, align 4, !tbaa !70
  %22 = icmp eq i32 %21, -2147483648
  br i1 %22, label %23, label %30

23:                                               ; preds = %18
  %24 = load ptr, ptr %4, align 8, !tbaa !3
  %25 = getelementptr inbounds nuw %struct._GLFWwindow, ptr %24, i32 0, i32 33
  %26 = getelementptr inbounds nuw %struct._GLFWwindowNull, ptr %25, i32 0, i32 0
  store i32 17, ptr %26, align 8, !tbaa !71
  %27 = load ptr, ptr %4, align 8, !tbaa !3
  %28 = getelementptr inbounds nuw %struct._GLFWwindow, ptr %27, i32 0, i32 33
  %29 = getelementptr inbounds nuw %struct._GLFWwindowNull, ptr %28, i32 0, i32 1
  store i32 17, ptr %29, align 4, !tbaa !72
  br label %43

30:                                               ; preds = %18, %13
  %31 = load ptr, ptr %5, align 8, !tbaa !8
  %32 = getelementptr inbounds nuw %struct._GLFWwndconfig, ptr %31, i32 0, i32 0
  %33 = load i32, ptr %32, align 8, !tbaa !69
  %34 = load ptr, ptr %4, align 8, !tbaa !3
  %35 = getelementptr inbounds nuw %struct._GLFWwindow, ptr %34, i32 0, i32 33
  %36 = getelementptr inbounds nuw %struct._GLFWwindowNull, ptr %35, i32 0, i32 0
  store i32 %33, ptr %36, align 8, !tbaa !71
  %37 = load ptr, ptr %5, align 8, !tbaa !8
  %38 = getelementptr inbounds nuw %struct._GLFWwndconfig, ptr %37, i32 0, i32 1
  %39 = load i32, ptr %38, align 4, !tbaa !70
  %40 = load ptr, ptr %4, align 8, !tbaa !3
  %41 = getelementptr inbounds nuw %struct._GLFWwindow, ptr %40, i32 0, i32 33
  %42 = getelementptr inbounds nuw %struct._GLFWwindowNull, ptr %41, i32 0, i32 1
  store i32 %39, ptr %42, align 4, !tbaa !72
  br label %43

43:                                               ; preds = %30, %23
  %44 = load ptr, ptr %5, align 8, !tbaa !8
  %45 = getelementptr inbounds nuw %struct._GLFWwndconfig, ptr %44, i32 0, i32 2
  %46 = load i32, ptr %45, align 8, !tbaa !73
  %47 = load ptr, ptr %4, align 8, !tbaa !3
  %48 = getelementptr inbounds nuw %struct._GLFWwindow, ptr %47, i32 0, i32 33
  %49 = getelementptr inbounds nuw %struct._GLFWwindowNull, ptr %48, i32 0, i32 2
  store i32 %46, ptr %49, align 8, !tbaa !74
  %50 = load ptr, ptr %5, align 8, !tbaa !8
  %51 = getelementptr inbounds nuw %struct._GLFWwndconfig, ptr %50, i32 0, i32 3
  %52 = load i32, ptr %51, align 4, !tbaa !75
  %53 = load ptr, ptr %4, align 8, !tbaa !3
  %54 = getelementptr inbounds nuw %struct._GLFWwindow, ptr %53, i32 0, i32 33
  %55 = getelementptr inbounds nuw %struct._GLFWwindowNull, ptr %54, i32 0, i32 3
  store i32 %52, ptr %55, align 4, !tbaa !76
  br label %56

56:                                               ; preds = %43, %11
  %57 = load ptr, ptr %5, align 8, !tbaa !8
  %58 = getelementptr inbounds nuw %struct._GLFWwndconfig, ptr %57, i32 0, i32 6
  %59 = load i32, ptr %58, align 4, !tbaa !67
  %60 = load ptr, ptr %4, align 8, !tbaa !3
  %61 = getelementptr inbounds nuw %struct._GLFWwindow, ptr %60, i32 0, i32 33
  %62 = getelementptr inbounds nuw %struct._GLFWwindowNull, ptr %61, i32 0, i32 4
  store i32 %59, ptr %62, align 8, !tbaa !77
  %63 = load ptr, ptr %5, align 8, !tbaa !8
  %64 = getelementptr inbounds nuw %struct._GLFWwndconfig, ptr %63, i32 0, i32 7
  %65 = load i32, ptr %64, align 8, !tbaa !78
  %66 = load ptr, ptr %4, align 8, !tbaa !3
  %67 = getelementptr inbounds nuw %struct._GLFWwindow, ptr %66, i32 0, i32 33
  %68 = getelementptr inbounds nuw %struct._GLFWwindowNull, ptr %67, i32 0, i32 8
  store i32 %65, ptr %68, align 8, !tbaa !79
  %69 = load ptr, ptr %5, align 8, !tbaa !8
  %70 = getelementptr inbounds nuw %struct._GLFWwndconfig, ptr %69, i32 0, i32 11
  %71 = load i32, ptr %70, align 8, !tbaa !80
  %72 = load ptr, ptr %4, align 8, !tbaa !3
  %73 = getelementptr inbounds nuw %struct._GLFWwindow, ptr %72, i32 0, i32 33
  %74 = getelementptr inbounds nuw %struct._GLFWwindowNull, ptr %73, i32 0, i32 6
  store i32 %71, ptr %74, align 8, !tbaa !81
  %75 = load ptr, ptr %5, align 8, !tbaa !8
  %76 = getelementptr inbounds nuw %struct._GLFWwndconfig, ptr %75, i32 0, i32 10
  %77 = load i32, ptr %76, align 4, !tbaa !82
  %78 = load ptr, ptr %4, align 8, !tbaa !3
  %79 = getelementptr inbounds nuw %struct._GLFWwindow, ptr %78, i32 0, i32 33
  %80 = getelementptr inbounds nuw %struct._GLFWwindowNull, ptr %79, i32 0, i32 9
  store i32 %77, ptr %80, align 4, !tbaa !83
  %81 = load ptr, ptr %6, align 8, !tbaa !12
  %82 = getelementptr inbounds nuw %struct._GLFWfbconfig, ptr %81, i32 0, i32 15
  %83 = load i32, ptr %82, align 4, !tbaa !84
  %84 = load ptr, ptr %4, align 8, !tbaa !3
  %85 = getelementptr inbounds nuw %struct._GLFWwindow, ptr %84, i32 0, i32 33
  %86 = getelementptr inbounds nuw %struct._GLFWwindowNull, ptr %85, i32 0, i32 10
  store i32 %83, ptr %86, align 8, !tbaa !86
  %87 = load ptr, ptr %4, align 8, !tbaa !3
  %88 = getelementptr inbounds nuw %struct._GLFWwindow, ptr %87, i32 0, i32 33
  %89 = getelementptr inbounds nuw %struct._GLFWwindowNull, ptr %88, i32 0, i32 11
  store float 1.000000e+00, ptr %89, align 4, !tbaa !87
  ret i32 1
}

; Function Attrs: nounwind uwtable
define hidden i32 @_glfwCreateWindowNull(ptr noundef %0, ptr noundef %1, ptr noundef %2, ptr noundef %3) #0 {
  %5 = alloca i32, align 4
  %6 = alloca ptr, align 8
  %7 = alloca ptr, align 8
  %8 = alloca ptr, align 8
  %9 = alloca ptr, align 8
  store ptr %0, ptr %6, align 8, !tbaa !3
  store ptr %1, ptr %7, align 8, !tbaa !8
  store ptr %2, ptr %8, align 8, !tbaa !10
  store ptr %3, ptr %9, align 8, !tbaa !12
  %10 = load ptr, ptr %6, align 8, !tbaa !3
  %11 = load ptr, ptr %7, align 8, !tbaa !8
  %12 = load ptr, ptr %9, align 8, !tbaa !12
  %13 = call i32 @createNativeWindow(ptr noundef %10, ptr noundef %11, ptr noundef %12)
  %14 = icmp ne i32 %13, 0
  br i1 %14, label %16, label %15

15:                                               ; preds = %4
  store i32 0, ptr %5, align 4
  br label %107

16:                                               ; preds = %4
  %17 = load ptr, ptr %8, align 8, !tbaa !10
  %18 = getelementptr inbounds nuw %struct._GLFWctxconfig, ptr %17, i32 0, i32 0
  %19 = load i32, ptr %18, align 8, !tbaa !14
  %20 = icmp ne i32 %19, 0
  br i1 %20, label %21, label %68

21:                                               ; preds = %16
  %22 = load ptr, ptr %8, align 8, !tbaa !10
  %23 = getelementptr inbounds nuw %struct._GLFWctxconfig, ptr %22, i32 0, i32 1
  %24 = load i32, ptr %23, align 4, !tbaa !18
  %25 = icmp eq i32 %24, 221185
  br i1 %25, label %31, label %26

26:                                               ; preds = %21
  %27 = load ptr, ptr %8, align 8, !tbaa !10
  %28 = getelementptr inbounds nuw %struct._GLFWctxconfig, ptr %27, i32 0, i32 1
  %29 = load i32, ptr %28, align 4, !tbaa !18
  %30 = icmp eq i32 %29, 221187
  br i1 %30, label %31, label %43

31:                                               ; preds = %26, %21
  %32 = call i32 @_glfwInitOSMesa()
  %33 = icmp ne i32 %32, 0
  br i1 %33, label %35, label %34

34:                                               ; preds = %31
  store i32 0, ptr %5, align 4
  br label %107

35:                                               ; preds = %31
  %36 = load ptr, ptr %6, align 8, !tbaa !3
  %37 = load ptr, ptr %8, align 8, !tbaa !10
  %38 = load ptr, ptr %9, align 8, !tbaa !12
  %39 = call i32 @_glfwCreateContextOSMesa(ptr noundef %36, ptr noundef %37, ptr noundef %38)
  %40 = icmp ne i32 %39, 0
  br i1 %40, label %42, label %41

41:                                               ; preds = %35
  store i32 0, ptr %5, align 4
  br label %107

42:                                               ; preds = %35
  br label %61

43:                                               ; preds = %26
  %44 = load ptr, ptr %8, align 8, !tbaa !10
  %45 = getelementptr inbounds nuw %struct._GLFWctxconfig, ptr %44, i32 0, i32 1
  %46 = load i32, ptr %45, align 4, !tbaa !18
  %47 = icmp eq i32 %46, 221186
  br i1 %47, label %48, label %60

48:                                               ; preds = %43
  %49 = call i32 @_glfwInitEGL()
  %50 = icmp ne i32 %49, 0
  br i1 %50, label %52, label %51

51:                                               ; preds = %48
  store i32 0, ptr %5, align 4
  br label %107

52:                                               ; preds = %48
  %53 = load ptr, ptr %6, align 8, !tbaa !3
  %54 = load ptr, ptr %8, align 8, !tbaa !10
  %55 = load ptr, ptr %9, align 8, !tbaa !12
  %56 = call i32 @_glfwCreateContextEGL(ptr noundef %53, ptr noundef %54, ptr noundef %55)
  %57 = icmp ne i32 %56, 0
  br i1 %57, label %59, label %58

58:                                               ; preds = %52
  store i32 0, ptr %5, align 4
  br label %107

59:                                               ; preds = %52
  br label %60

60:                                               ; preds = %59, %43
  br label %61

61:                                               ; preds = %60, %42
  %62 = load ptr, ptr %6, align 8, !tbaa !3
  %63 = load ptr, ptr %8, align 8, !tbaa !10
  %64 = call i32 @_glfwRefreshContextAttribs(ptr noundef %62, ptr noundef %63)
  %65 = icmp ne i32 %64, 0
  br i1 %65, label %67, label %66

66:                                               ; preds = %61
  store i32 0, ptr %5, align 4
  br label %107

67:                                               ; preds = %61
  br label %68

68:                                               ; preds = %67, %16
  %69 = load ptr, ptr %7, align 8, !tbaa !8
  %70 = getelementptr inbounds nuw %struct._GLFWwndconfig, ptr %69, i32 0, i32 14
  %71 = load i32, ptr %70, align 4, !tbaa !19
  %72 = icmp ne i32 %71, 0
  br i1 %72, label %73, label %75

73:                                               ; preds = %68
  %74 = load ptr, ptr %6, align 8, !tbaa !3
  call void @_glfwSetWindowMousePassthroughNull(ptr noundef %74, i32 noundef 1)
  br label %75

75:                                               ; preds = %73, %68
  %76 = load ptr, ptr %6, align 8, !tbaa !3
  %77 = getelementptr inbounds nuw %struct._GLFWwindow, ptr %76, i32 0, i32 11
  %78 = load ptr, ptr %77, align 8, !tbaa !25
  %79 = icmp ne ptr %78, null
  br i1 %79, label %80, label %91

80:                                               ; preds = %75
  %81 = load ptr, ptr %6, align 8, !tbaa !3
  call void @_glfwShowWindowNull(ptr noundef %81)
  %82 = load ptr, ptr %6, align 8, !tbaa !3
  call void @_glfwFocusWindowNull(ptr noundef %82)
  %83 = load ptr, ptr %6, align 8, !tbaa !3
  call void @acquireMonitor(ptr noundef %83)
  %84 = load ptr, ptr %7, align 8, !tbaa !8
  %85 = getelementptr inbounds nuw %struct._GLFWwndconfig, ptr %84, i32 0, i32 12
  %86 = load i32, ptr %85, align 4, !tbaa !66
  %87 = icmp ne i32 %86, 0
  br i1 %87, label %88, label %90

88:                                               ; preds = %80
  %89 = load ptr, ptr %6, align 8, !tbaa !3
  call void @_glfwCenterCursorInContentArea(ptr noundef %89)
  br label %90

90:                                               ; preds = %88, %80
  br label %106

91:                                               ; preds = %75
  %92 = load ptr, ptr %7, align 8, !tbaa !8
  %93 = getelementptr inbounds nuw %struct._GLFWwndconfig, ptr %92, i32 0, i32 6
  %94 = load i32, ptr %93, align 4, !tbaa !67
  %95 = icmp ne i32 %94, 0
  br i1 %95, label %96, label %105

96:                                               ; preds = %91
  %97 = load ptr, ptr %6, align 8, !tbaa !3
  call void @_glfwShowWindowNull(ptr noundef %97)
  %98 = load ptr, ptr %7, align 8, !tbaa !8
  %99 = getelementptr inbounds nuw %struct._GLFWwndconfig, ptr %98, i32 0, i32 8
  %100 = load i32, ptr %99, align 4, !tbaa !68
  %101 = icmp ne i32 %100, 0
  br i1 %101, label %102, label %104

102:                                              ; preds = %96
  %103 = load ptr, ptr %6, align 8, !tbaa !3
  call void @_glfwFocusWindowNull(ptr noundef %103)
  br label %104

104:                                              ; preds = %102, %96
  br label %105

105:                                              ; preds = %104, %91
  br label %106

106:                                              ; preds = %105, %90
  store i32 1, ptr %5, align 4
  br label %107

107:                                              ; preds = %106, %66, %58, %51, %41, %34, %15
  %108 = load i32, ptr %5, align 4
  ret i32 %108
}