; Function Attrs: nounwind uwtable
define hidden range(i32 0, 2) i32 @_glfwCreateWindowNull(ptr noundef %0, ptr noundef readonly captures(none) %1, ptr noundef %2, ptr noundef %3) local_unnamed_addr #0 {
  %5 = alloca %struct.GLFWvidmode, align 4
  %6 = getelementptr inbounds nuw i8, ptr %0, i64 80
  %7 = load ptr, ptr %6, align 8, !tbaa !3
  %.not.i = icmp eq ptr %7, null
  br i1 %.not.i, label %16, label %8

8:                                                ; preds = %4
  call void @llvm.lifetime.start.p0(i64 24, ptr nonnull %5) #11
  %9 = call i32 @_glfwGetVideoModeNull(ptr noundef nonnull %7, ptr noundef nonnull %5) #11
  %10 = load ptr, ptr %6, align 8, !tbaa !3
  %11 = getelementptr inbounds nuw i8, ptr %0, i64 3368
  %12 = getelementptr inbounds nuw i8, ptr %0, i64 3372
  call void @_glfwGetMonitorPosNull(ptr noundef %10, ptr noundef nonnull %11, ptr noundef nonnull %12) #11
  %13 = load i32, ptr %5, align 4, !tbaa !50
  %14 = getelementptr inbounds nuw i8, ptr %5, i64 4
  %15 = load i32, ptr %14, align 4, !tbaa !51
  call void @llvm.lifetime.end.p0(i64 24, ptr nonnull %5) #11
  br label %createNativeWindow.exit

16:                                               ; preds = %4
  %17 = load i32, ptr %1, align 8, !tbaa !52
  %18 = icmp eq i32 %17, -2147483648
  %19 = getelementptr inbounds nuw i8, ptr %1, i64 4
  %20 = load i32, ptr %19, align 4, !tbaa !57
  %21 = icmp eq i32 %20, -2147483648
  %or.cond.i = select i1 %18, i1 %21, i1 false
  %..i = select i1 %or.cond.i, i32 17, i32 %17
  %.28.i = select i1 %or.cond.i, i32 17, i32 %20
  %22 = getelementptr inbounds nuw i8, ptr %0, i64 3368
  store i32 %..i, ptr %22, align 8, !tbaa !58
  %23 = getelementptr inbounds nuw i8, ptr %0, i64 3372
  store i32 %.28.i, ptr %23, align 4, !tbaa !59
  %24 = getelementptr inbounds nuw i8, ptr %1, i64 8
  %25 = load i32, ptr %24, align 8, !tbaa !60
  %26 = getelementptr inbounds nuw i8, ptr %1, i64 12
  %27 = load i32, ptr %26, align 4, !tbaa !61
  br label %createNativeWindow.exit

createNativeWindow.exit:                          ; preds = %8, %16
  %.sink38 = phi i32 [ %25, %16 ], [ %13, %8 ]
  %.sink = phi i32 [ %27, %16 ], [ %15, %8 ]
  %28 = getelementptr inbounds nuw i8, ptr %0, i64 3376
  store i32 %.sink38, ptr %28, align 8, !tbaa !62
  %29 = getelementptr inbounds nuw i8, ptr %0, i64 3380
  store i32 %.sink, ptr %29, align 4, !tbaa !63
  %30 = getelementptr inbounds nuw i8, ptr %1, i64 28
  %31 = load i32, ptr %30, align 4, !tbaa !64
  %32 = getelementptr inbounds nuw i8, ptr %0, i64 3384
  store i32 %31, ptr %32, align 8, !tbaa !65
  %33 = getelementptr inbounds nuw i8, ptr %1, i64 32
  %34 = load i32, ptr %33, align 8, !tbaa !66
  %35 = getelementptr inbounds nuw i8, ptr %0, i64 3400
  store i32 %34, ptr %35, align 8, !tbaa !67
  %36 = getelementptr inbounds nuw i8, ptr %1, i64 48
  %37 = load i32, ptr %36, align 8, !tbaa !68
  %38 = getelementptr inbounds nuw i8, ptr %0, i64 3392
  store i32 %37, ptr %38, align 8, !tbaa !69
  %39 = getelementptr inbounds nuw i8, ptr %1, i64 44
  %40 = load i32, ptr %39, align 4, !tbaa !70
  %41 = getelementptr inbounds nuw i8, ptr %0, i64 3404
  store i32 %40, ptr %41, align 4, !tbaa !71
  %42 = getelementptr inbounds nuw i8, ptr %3, i64 60
  %43 = load i32, ptr %42, align 4, !tbaa !72
  %44 = getelementptr inbounds nuw i8, ptr %0, i64 3408
  store i32 %43, ptr %44, align 8, !tbaa !74
  %45 = getelementptr inbounds nuw i8, ptr %0, i64 3412
  store float 1.000000e+00, ptr %45, align 4, !tbaa !75
  %46 = load i32, ptr %2, align 8, !tbaa !76
  %.not = icmp eq i32 %46, 0
  br i1 %.not, label %60, label %47

47:                                               ; preds = %createNativeWindow.exit
  %48 = getelementptr inbounds nuw i8, ptr %2, i64 4
  %49 = load i32, ptr %48, align 4, !tbaa !79
  switch i32 %49, label %58 [
    i32 221185, label %50
    i32 221187, label %50
    i32 221186, label %54
  ]

50:                                               ; preds = %47, %47
  %51 = call i32 @_glfwInitOSMesa() #11
  %.not30 = icmp eq i32 %51, 0
  br i1 %.not30, label %73, label %52

52:                                               ; preds = %50
  %53 = call i32 @_glfwCreateContextOSMesa(ptr noundef nonnull %0, ptr noundef nonnull %2, ptr noundef nonnull %3) #11
  %.not31 = icmp eq i32 %53, 0
  br i1 %.not31, label %73, label %58

54:                                               ; preds = %47
  %55 = call i32 @_glfwInitEGL() #11
  %.not28 = icmp eq i32 %55, 0
  br i1 %.not28, label %73, label %56

56:                                               ; preds = %54
  %57 = call i32 @_glfwCreateContextEGL(ptr noundef nonnull %0, ptr noundef nonnull %2, ptr noundef nonnull %3) #11
  %.not29 = icmp eq i32 %57, 0
  br i1 %.not29, label %73, label %58

58:                                               ; preds = %47, %56, %52
  %59 = call i32 @_glfwRefreshContextAttribs(ptr noundef nonnull %0, ptr noundef nonnull %2) #11
  %.not32 = icmp eq i32 %59, 0
  br i1 %.not32, label %73, label %60

60:                                               ; preds = %createNativeWindow.exit, %58
  %61 = load ptr, ptr %6, align 8, !tbaa !3
  %.not34 = icmp eq ptr %61, null
  br i1 %.not34, label %67, label %62

62:                                               ; preds = %60
  store i32 1, ptr %32, align 8, !tbaa !65
  call void @_glfwFocusWindowNull(ptr noundef nonnull %0)
  %63 = load ptr, ptr %6, align 8, !tbaa !3
  call void @_glfwInputMonitorWindow(ptr noundef %63, ptr noundef nonnull %0) #11
  %64 = getelementptr inbounds nuw i8, ptr %1, i64 52
  %65 = load i32, ptr %64, align 4, !tbaa !80
  %.not37 = icmp eq i32 %65, 0
  br i1 %.not37, label %73, label %66

66:                                               ; preds = %62
  call void @_glfwCenterCursorInContentArea(ptr noundef nonnull %0) #11
  br label %73

67:                                               ; preds = %60
  %68 = load i32, ptr %30, align 4, !tbaa !64
  %.not35 = icmp eq i32 %68, 0
  br i1 %.not35, label %73, label %69

69:                                               ; preds = %67
  store i32 1, ptr %32, align 8, !tbaa !65
  %70 = getelementptr inbounds nuw i8, ptr %1, i64 36
  %71 = load i32, ptr %70, align 4, !tbaa !81
  %.not36 = icmp eq i32 %71, 0
  br i1 %.not36, label %73, label %72

72:                                               ; preds = %69
  call void @_glfwFocusWindowNull(ptr noundef nonnull %0)
  br label %73

73:                                               ; preds = %66, %62, %69, %72, %67, %58, %56, %54, %52, %50
  %.0 = phi i32 [ 0, %50 ], [ 0, %52 ], [ 0, %54 ], [ 0, %56 ], [ 0, %58 ], [ 1, %67 ], [ 1, %72 ], [ 1, %69 ], [ 1, %62 ], [ 1, %66 ]
  ret i32 %.0
}